target datalayout = "e-m:e-p270:32:32-p271:32:32-p272:64:64-i64:64-i128:128-f80:128-n8:16:32:64-S128"
target triple = "x86_64-pc-linux-gnu"

%struct.SDL_Properties = type { ptr, ptr }
%struct.SDL_Property = type { i32, %union.anon, ptr, ptr, ptr }
%union.anon = type { ptr }

@SDL_properties = internal global ptr null, align 8
@.str = private unnamed_addr constant [26 x i8] c"Parameter '%s' is invalid\00", align 1
@.str.3 = private unnamed_addr constant [6 x i8] c"props\00", align 1
@.str.9 = private unnamed_addr constant [5 x i8] c"name\00", align 1

; Function Attrs: nounwind uwtable
define internal void @SDL_FreePropertyWithCleanup(ptr noundef %0, ptr noundef %1, ptr noundef %2, i1 noundef zeroext %3) #0 {
  %5 = alloca ptr, align 8
  %6 = alloca ptr, align 8
  %7 = alloca ptr, align 8
  %8 = alloca i8, align 1
  %9 = alloca ptr, align 8
  store ptr %0, ptr %5, align 8
  store ptr %1, ptr %6, align 8
  store ptr %2, ptr %7, align 8
  %10 = zext i1 %3 to i8
  store i8 %10, ptr %8, align 1
  call void @llvm.lifetime.start.p0(i64 8, ptr %9) #6
  %11 = load ptr, ptr %6, align 8
  store ptr %11, ptr %9, align 8
  %12 = load ptr, ptr %9, align 8
  %13 = icmp ne ptr %12, null
  br i1 %13, label %14, label %46

14:                                               ; preds = %4
  %15 = load ptr, ptr %9, align 8
  %16 = getelementptr inbounds nuw %struct.SDL_Property, ptr %15, i32 0, i32 0
  %17 = load i32, ptr %16, align 8
  switch i32 %17, label %41 [
    i32 1, label %18
    i32 2, label %37
  ]

18:                                               ; preds = %14
  %19 = load ptr, ptr %9, align 8
  %20 = getelementptr inbounds nuw %struct.SDL_Property, ptr %19, i32 0, i32 3
  %21 = load ptr, ptr %20, align 8
  %22 = icmp ne ptr %21, null
  br i1 %22, label %23, label %36

23:                                               ; preds = %18
  %24 = load i8, ptr %8, align 1, !range !3, !noundef !4
  %25 = trunc i8 %24 to i1
  br i1 %25, label %26, label %36

26:                                               ; preds = %23
  %27 = load ptr, ptr %9, align 8
  %28 = getelementptr inbounds nuw %struct.SDL_Property, ptr %27, i32 0, i32 3
  %29 = load ptr, ptr %28, align 8
  %30 = load ptr, ptr %9, align 8
  %31 = getelementptr inbounds nuw %struct.SDL_Property, ptr %30, i32 0, i32 4
  %32 = load ptr, ptr %31, align 8
  %33 = load ptr, ptr %9, align 8
  %34 = getelementptr inbounds nuw %struct.SDL_Property, ptr %33, i32 0, i32 1
  %35 = load ptr, ptr %34, align 8
  call void %29(ptr noundef %32, ptr noundef %35)
  br label %36

36:                                               ; preds = %26, %23, %18
  br label %42

37:                                               ; preds = %14
  %38 = load ptr, ptr %9, align 8
  %39 = getelementptr inbounds nuw %struct.SDL_Property, ptr %38, i32 0, i32 1
  %40 = load ptr, ptr %39, align 8
  call void @SDL_free_REAL(ptr noundef %40)
  br label %42

41:                                               ; preds = %14
  br label %42

42:                                               ; preds = %41, %37, %36
  %43 = load ptr, ptr %9, align 8
  %44 = getelementptr inbounds nuw %struct.SDL_Property, ptr %43, i32 0, i32 2
  %45 = load ptr, ptr %44, align 8
  call void @SDL_free_REAL(ptr noundef %45)
  br label %46

46:                                               ; preds = %42, %4
  %47 = load ptr, ptr %5, align 8
  call void @SDL_free_REAL(ptr noundef %47)
  %48 = load ptr, ptr %6, align 8
  call void @SDL_free_REAL(ptr noundef %48)
  call void @llvm.lifetime.end.p0(i64 8, ptr %9) #6
  ret void
}

; Function Attrs: nounwind uwtable
define internal zeroext i1 @SDL_PrivateSetProperty(i32 noundef %0, ptr noundef %1, ptr noundef %2) #0 {
  %4 = alloca i1, align 1
  %5 = alloca i32, align 4
  %6 = alloca ptr, align 8
  %7 = alloca ptr, align 8
  %8 = alloca ptr, align 8
  %9 = alloca i8, align 1
  %10 = alloca i32, align 4
  %11 = alloca ptr, align 8
  store i32 %0, ptr %5, align 4
  store ptr %1, ptr %6, align 8
  store ptr %2, ptr %7, align 8
  call void @llvm.lifetime.start.p0(i64 8, ptr %8) #6
  store ptr null, ptr %8, align 8
  call void @llvm.lifetime.start.p0(i64 1, ptr %9) #6
  store i8 1, ptr %9, align 1
  %12 = load i32, ptr %5, align 4
  %13 = icmp ne i32 %12, 0
  br i1 %13, label %17, label %14

14:                                               ; preds = %3
  %15 = load ptr, ptr %7, align 8
  call void @SDL_FreePropertyWithCleanup(ptr noundef null, ptr noundef %15, ptr noundef null, i1 noundef zeroext true)
  %16 = call zeroext i1 (ptr, ...) @SDL_SetError_REAL(ptr noundef @.str, ptr noundef @.str.3)
  store i1 %16, ptr %4, align 1
  store i32 1, ptr %10, align 4
  br label %71

17:                                               ; preds = %3
  %18 = load ptr, ptr %6, align 8
  %19 = icmp ne ptr %18, null
  br i1 %19, label %20, label %24

20:                                               ; preds = %17
  %21 = load ptr, ptr %6, align 8
  %22 = load i8, ptr %21, align 1
  %23 = icmp ne i8 %22, 0
  br i1 %23, label %27, label %24

24:                                               ; preds = %20, %17
  %25 = load ptr, ptr %7, align 8
  call void @SDL_FreePropertyWithCleanup(ptr noundef null, ptr noundef %25, ptr noundef null, i1 noundef zeroext true)
  %26 = call zeroext i1 (ptr, ...) @SDL_SetError_REAL(ptr noundef @.str, ptr noundef @.str.9)
  store i1 %26, ptr %4, align 1
  store i32 1, ptr %10, align 4
  br label %71

27:                                               ; preds = %20
  %28 = load ptr, ptr @SDL_properties, align 8
  %29 = load i32, ptr %5, align 4
  %30 = zext i32 %29 to i64
  %31 = inttoptr i64 %30 to ptr
  %32 = call zeroext i1 @SDL_FindInHashTable(ptr noundef %28, ptr noundef %31, ptr noundef %8)
  %33 = load ptr, ptr %8, align 8
  %34 = icmp ne ptr %33, null
  br i1 %34, label %38, label %35

35:                                               ; preds = %27
  %36 = load ptr, ptr %7, align 8
  call void @SDL_FreePropertyWithCleanup(ptr noundef null, ptr noundef %36, ptr noundef null, i1 noundef zeroext true)
  %37 = call zeroext i1 (ptr, ...) @SDL_SetError_REAL(ptr noundef @.str, ptr noundef @.str.3)
  store i1 %37, ptr %4, align 1
  store i32 1, ptr %10, align 4
  br label %71

38:                                               ; preds = %27
  %39 = load ptr, ptr %8, align 8
  %40 = getelementptr inbounds nuw %struct.SDL_Properties, ptr %39, i32 0, i32 1
  %41 = load ptr, ptr %40, align 8
  call void @SDL_LockMutex_REAL(ptr noundef %41)
  %42 = load ptr, ptr %8, align 8
  %43 = getelementptr inbounds nuw %struct.SDL_Properties, ptr %42, i32 0, i32 0
  %44 = load ptr, ptr %43, align 8
  %45 = load ptr, ptr %6, align 8
  %46 = call zeroext i1 @SDL_RemoveFromHashTable(ptr noundef %44, ptr noundef %45)
  %47 = load ptr, ptr %7, align 8
  %48 = icmp ne ptr %47, null
  br i1 %48, label %49, label %65

49:                                               ; preds = %38
  call void @llvm.lifetime.start.p0(i64 8, ptr %11) #6
  %50 = load ptr, ptr %6, align 8
  %51 = call noalias ptr @SDL_strdup_REAL(ptr noundef %50)
  store ptr %51, ptr %11, align 8
  %52 = load ptr, ptr %11, align 8
  %53 = icmp ne ptr %52, null
  br i1 %53, label %54, label %61

54:                                               ; preds = %49
  %55 = load ptr, ptr %8, align 8
  %56 = getelementptr inbounds nuw %struct.SDL_Properties, ptr %55, i32 0, i32 0
  %57 = load ptr, ptr %56, align 8
  %58 = load ptr, ptr %11, align 8
  %59 = load ptr, ptr %7, align 8
  %60 = call zeroext i1 @SDL_InsertIntoHashTable(ptr noundef %57, ptr noundef %58, ptr noundef %59, i1 noundef zeroext false)
  br i1 %60, label %64, label %61

61:                                               ; preds = %54, %49
  %62 = load ptr, ptr %11, align 8
  %63 = load ptr, ptr %7, align 8
  call void @SDL_FreePropertyWithCleanup(ptr noundef %62, ptr noundef %63, ptr noundef null, i1 noundef zeroext true)
  store i8 0, ptr %9, align 1
  br label %64

64:                                               ; preds = %61, %54
  call void @llvm.lifetime.end.p0(i64 8, ptr %11) #6
  br label %65

65:                                               ; preds = %64, %38
  %66 = load ptr, ptr %8, align 8
  %67 = getelementptr inbounds nuw %struct.SDL_Properties, ptr %66, i32 0, i32 1
  %68 = load ptr, ptr %67, align 8
  call void @SDL_UnlockMutex_REAL(ptr noundef %68)
  %69 = load i8, ptr %9, align 1, !range !3, !noundef !4
  %70 = trunc i8 %69 to i1
  store i1 %70, ptr %4, align 1
  store i32 1, ptr %10, align 4
  br label %71

71:                                               ; preds = %65, %35, %24, %14
  call void @llvm.lifetime.end.p0(i64 1, ptr %9) #6
  call void @llvm.lifetime.end.p0(i64 8, ptr %8) #6
  %72 = load i1, ptr %4, align 1
  ret i1 %72
}