; Function Attrs: nounwind uwtable
define internal fastcc zeroext i1 @SDL_PrivateSetProperty(i32 noundef %0, ptr noundef %1, ptr noundef %2) unnamed_addr #0 {
  %4 = alloca ptr, align 8
  call void @llvm.lifetime.start.p0(i64 8, ptr nonnull %4) #6
  store ptr null, ptr %4, align 8
  %.not = icmp eq i32 %0, 0
  br i1 %.not, label %5, label %23

5:                                                ; preds = %3
  %.not.i = icmp eq ptr %2, null
  br i1 %.not.i, label %SDL_FreePropertyWithCleanup.exit, label %6

6:                                                ; preds = %5
  %7 = load i32, ptr %2, align 8
  switch i32 %7, label %19 [
    i32 1, label %8
    i32 2, label %16
  ]

8:                                                ; preds = %6
  %9 = getelementptr inbounds nuw i8, ptr %2, i64 24
  %10 = load ptr, ptr %9, align 8
  %.not40 = icmp eq ptr %10, null
  br i1 %.not40, label %19, label %11

11:                                               ; preds = %8
  %12 = getelementptr inbounds nuw i8, ptr %2, i64 32
  %13 = load ptr, ptr %12, align 8
  %14 = getelementptr inbounds nuw i8, ptr %2, i64 8
  %15 = load ptr, ptr %14, align 8
  tail call void %10(ptr noundef %13, ptr noundef %15) #6
  br label %19

16:                                               ; preds = %6
  %17 = getelementptr inbounds nuw i8, ptr %2, i64 8
  %18 = load ptr, ptr %17, align 8
  tail call void @SDL_free_REAL(ptr noundef %18) #6
  br label %19

19:                                               ; preds = %16, %11, %8, %6
  %20 = getelementptr inbounds nuw i8, ptr %2, i64 16
  %21 = load ptr, ptr %20, align 8
  tail call void @SDL_free_REAL(ptr noundef %21) #6
  br label %SDL_FreePropertyWithCleanup.exit

SDL_FreePropertyWithCleanup.exit:                 ; preds = %5, %19
  tail call void @SDL_free_REAL(ptr noundef null) #6
  tail call void @SDL_free_REAL(ptr noundef %2) #6
  %22 = tail call zeroext i1 (ptr, ...) @SDL_SetError_REAL(ptr noundef nonnull @.str, ptr noundef nonnull @.str.3) #6
  br label %110

23:                                               ; preds = %3
  %.not23 = icmp eq ptr %1, null
  br i1 %.not23, label %26, label %24

24:                                               ; preds = %23
  %25 = load i8, ptr %1, align 1
  %.not24 = icmp eq i8 %25, 0
  br i1 %.not24, label %26, label %44

26:                                               ; preds = %24, %23
  %.not.i28 = icmp eq ptr %2, null
  br i1 %.not.i28, label %SDL_FreePropertyWithCleanup.exit29, label %27

27:                                               ; preds = %26
  %28 = load i32, ptr %2, align 8
  switch i32 %28, label %40 [
    i32 1, label %29
    i32 2, label %37
  ]

29:                                               ; preds = %27
  %30 = getelementptr inbounds nuw i8, ptr %2, i64 24
  %31 = load ptr, ptr %30, align 8
  %.not39 = icmp eq ptr %31, null
  br i1 %.not39, label %40, label %32

32:                                               ; preds = %29
  %33 = getelementptr inbounds nuw i8, ptr %2, i64 32
  %34 = load ptr, ptr %33, align 8
  %35 = getelementptr inbounds nuw i8, ptr %2, i64 8
  %36 = load ptr, ptr %35, align 8
  tail call void %31(ptr noundef %34, ptr noundef %36) #6
  br label %40

37:                                               ; preds = %27
  %38 = getelementptr inbounds nuw i8, ptr %2, i64 8
  %39 = load ptr, ptr %38, align 8
  tail call void @SDL_free_REAL(ptr noundef %39) #6
  br label %40

40:                                               ; preds = %37, %32, %29, %27
  %41 = getelementptr inbounds nuw i8, ptr %2, i64 16
  %42 = load ptr, ptr %41, align 8
  tail call void @SDL_free_REAL(ptr noundef %42) #6
  br label %SDL_FreePropertyWithCleanup.exit29

SDL_FreePropertyWithCleanup.exit29:               ; preds = %26, %40
  tail call void @SDL_free_REAL(ptr noundef null) #6
  tail call void @SDL_free_REAL(ptr noundef %2) #6
  %43 = tail call zeroext i1 (ptr, ...) @SDL_SetError_REAL(ptr noundef nonnull @.str, ptr noundef nonnull @.str.9) #6
  br label %110

44:                                               ; preds = %24
  %45 = load ptr, ptr @SDL_properties, align 8
  %46 = zext i32 %0 to i64
  %47 = inttoptr i64 %46 to ptr
  %48 = call zeroext i1 @SDL_FindInHashTable(ptr noundef %45, ptr noundef nonnull %47, ptr noundef nonnull %4) #6
  %49 = load ptr, ptr %4, align 8
  %.not25 = icmp eq ptr %49, null
  br i1 %.not25, label %50, label %68

50:                                               ; preds = %44
  %.not.i30 = icmp eq ptr %2, null
  br i1 %.not.i30, label %SDL_FreePropertyWithCleanup.exit31, label %51

51:                                               ; preds = %50
  %52 = load i32, ptr %2, align 8
  switch i32 %52, label %64 [
    i32 1, label %53
    i32 2, label %61
  ]

53:                                               ; preds = %51
  %54 = getelementptr inbounds nuw i8, ptr %2, i64 24
  %55 = load ptr, ptr %54, align 8
  %.not38 = icmp eq ptr %55, null
  br i1 %.not38, label %64, label %56

56:                                               ; preds = %53
  %57 = getelementptr inbounds nuw i8, ptr %2, i64 32
  %58 = load ptr, ptr %57, align 8
  %59 = getelementptr inbounds nuw i8, ptr %2, i64 8
  %60 = load ptr, ptr %59, align 8
  call void %55(ptr noundef %58, ptr noundef %60) #6
  br label %64

61:                                               ; preds = %51
  %62 = getelementptr inbounds nuw i8, ptr %2, i64 8
  %63 = load ptr, ptr %62, align 8
  call void @SDL_free_REAL(ptr noundef %63) #6
  br label %64

64:                                               ; preds = %61, %56, %53, %51
  %65 = getelementptr inbounds nuw i8, ptr %2, i64 16
  %66 = load ptr, ptr %65, align 8
  call void @SDL_free_REAL(ptr noundef %66) #6
  br label %SDL_FreePropertyWithCleanup.exit31

SDL_FreePropertyWithCleanup.exit31:               ; preds = %50, %64
  call void @SDL_free_REAL(ptr noundef null) #6
  call void @SDL_free_REAL(ptr noundef %2) #6
  %67 = call zeroext i1 (ptr, ...) @SDL_SetError_REAL(ptr noundef nonnull @.str, ptr noundef nonnull @.str.3) #6
  br label %110

68:                                               ; preds = %44
  %69 = getelementptr inbounds nuw i8, ptr %49, i64 8
  %70 = load ptr, ptr %69, align 8
  call void @SDL_LockMutex_REAL(ptr noundef %70) #6
  %71 = load ptr, ptr %4, align 8
  %72 = load ptr, ptr %71, align 8
  %73 = call zeroext i1 @SDL_RemoveFromHashTable(ptr noundef %72, ptr noundef nonnull %1) #6
  %.not26 = icmp eq ptr %2, null
  br i1 %.not26, label %106, label %74

74:                                               ; preds = %68
  %75 = call noalias ptr @SDL_strdup_REAL(ptr noundef nonnull %1) #6
  %.not27 = icmp eq ptr %75, null
  br i1 %.not27, label %.split, label %88

.split:                                           ; preds = %74
  %76 = load i32, ptr %2, align 8
  switch i32 %76, label %.sink.split [
    i32 1, label %77
    i32 2, label %85
  ]

77:                                               ; preds = %.split
  %78 = getelementptr inbounds nuw i8, ptr %2, i64 24
  %79 = load ptr, ptr %78, align 8
  %.not37 = icmp eq ptr %79, null
  br i1 %.not37, label %.sink.split, label %80

80:                                               ; preds = %77
  %81 = getelementptr inbounds nuw i8, ptr %2, i64 32
  %82 = load ptr, ptr %81, align 8
  %83 = getelementptr inbounds nuw i8, ptr %2, i64 8
  %84 = load ptr, ptr %83, align 8
  call void %79(ptr noundef %82, ptr noundef %84) #6
  br label %.sink.split

85:                                               ; preds = %.split
  %86 = getelementptr inbounds nuw i8, ptr %2, i64 8
  %87 = load ptr, ptr %86, align 8
  call void @SDL_free_REAL(ptr noundef %87) #6
  br label %.sink.split

88:                                               ; preds = %74
  %89 = load ptr, ptr %4, align 8
  %90 = load ptr, ptr %89, align 8
  %91 = call zeroext i1 @SDL_InsertIntoHashTable(ptr noundef %90, ptr noundef nonnull %75, ptr noundef nonnull %2, i1 noundef zeroext false) #6
  br i1 %91, label %106, label %.split17

.split17:                                         ; preds = %88
  %92 = load i32, ptr %2, align 8
  switch i32 %92, label %.sink.split [
    i32 1, label %93
    i32 2, label %101
  ]

93:                                               ; preds = %.split17
  %94 = getelementptr inbounds nuw i8, ptr %2, i64 24
  %95 = load ptr, ptr %94, align 8
  %.not36 = icmp eq ptr %95, null
  br i1 %.not36, label %.sink.split, label %96

96:                                               ; preds = %93
  %97 = getelementptr inbounds nuw i8, ptr %2, i64 32
  %98 = load ptr, ptr %97, align 8
  %99 = getelementptr inbounds nuw i8, ptr %2, i64 8
  %100 = load ptr, ptr %99, align 8
  call void %95(ptr noundef %98, ptr noundef %100) #6
  br label %.sink.split

101:                                              ; preds = %.split17
  %102 = getelementptr inbounds nuw i8, ptr %2, i64 8
  %103 = load ptr, ptr %102, align 8
  call void @SDL_free_REAL(ptr noundef %103) #6
  br label %.sink.split

.sink.split:                                      ; preds = %101, %96, %93, %.split17, %85, %80, %77, %.split
  %.sink = phi ptr [ null, %.split ], [ null, %77 ], [ null, %80 ], [ null, %85 ], [ %75, %.split17 ], [ %75, %93 ], [ %75, %96 ], [ %75, %101 ]
  %104 = getelementptr inbounds nuw i8, ptr %2, i64 16
  %105 = load ptr, ptr %104, align 8
  call void @SDL_free_REAL(ptr noundef %105) #6
  call void @SDL_free_REAL(ptr noundef %.sink) #6
  call void @SDL_free_REAL(ptr noundef nonnull %2) #6
  br label %106

106:                                              ; preds = %.sink.split, %88, %68
  %.016 = phi i1 [ true, %68 ], [ true, %88 ], [ false, %.sink.split ]
  %107 = load ptr, ptr %4, align 8
  %108 = getelementptr inbounds nuw i8, ptr %107, i64 8
  %109 = load ptr, ptr %108, align 8
  call void @SDL_UnlockMutex_REAL(ptr noundef %109) #6
  br label %110

110:                                              ; preds = %106, %SDL_FreePropertyWithCleanup.exit31, %SDL_FreePropertyWithCleanup.exit29, %SDL_FreePropertyWithCleanup.exit
  %.0 = phi i1 [ %.016, %106 ], [ %67, %SDL_FreePropertyWithCleanup.exit31 ], [ %43, %SDL_FreePropertyWithCleanup.exit29 ], [ %22, %SDL_FreePropertyWithCleanup.exit ]
  call void @llvm.lifetime.end.p0(i64 8, ptr nonnull %4) #6
  ret i1 %.0
}